target datalayout = "e-m:e-p270:32:32-p271:32:32-p272:64:64-i64:64-i128:128-f80:128-n8:16:32:64-S128"
target triple = "x86_64-pc-linux-gnu"

%struct.tMPI_Atomic = type { i32, [60 x i8] }
%struct.tmpi_comm_ = type { %struct.tmpi_group_, %struct.tMPI_Barrier_t, ptr, ptr, i32, ptr, ptr, ptr, ptr, %struct.tMPI_Thread_mutex_t, %struct.tMPI_Thread_cond_t, %struct.tMPI_Thread_cond_t, ptr, ptr, ptr, ptr, ptr, ptr, %struct.tMPI_Atomic }
%struct.tmpi_group_ = type { i32, ptr }
%struct.tMPI_Barrier_t = type { %struct.tMPI_Atomic, i32, %struct.tMPI_Atomic }
%struct.tMPI_Thread_mutex_t = type { %struct.tMPI_Atomic, ptr }
%struct.tMPI_Thread_cond_t = type { %struct.tMPI_Atomic, ptr }

@TMPI_COMM_WORLD = external global ptr, align 8

; Function Attrs: mustprogress uwtable
define noundef i32 @_Z12tMPI_BarrierP10tmpi_comm_(ptr noundef %0) #0 {
  %2 = alloca i32, align 4
  %3 = alloca ptr, align 8
  store ptr %0, ptr %3, align 8, !tbaa !43
  %4 = load ptr, ptr %3, align 8, !tbaa !43
  %5 = icmp ne ptr %4, null
  br i1 %5, label %9, label %6

6:                                                ; preds = %1
  %7 = load ptr, ptr @TMPI_COMM_WORLD, align 8, !tbaa !43
  %8 = call noundef i32 @_Z10tMPI_ErrorP10tmpi_comm_i(ptr noundef %7, i32 noundef 6)
  store i32 %8, ptr %2, align 4
  br label %20

9:                                                ; preds = %1
  %10 = load ptr, ptr %3, align 8, !tbaa !43
  %11 = getelementptr inbounds nuw %struct.tmpi_comm_, ptr %10, i32 0, i32 0
  %12 = getelementptr inbounds nuw %struct.tmpi_group_, ptr %11, i32 0, i32 0
  %13 = load i32, ptr %12, align 8, !tbaa !75
  %14 = icmp sgt i32 %13, 1
  br i1 %14, label %15, label %19

15:                                               ; preds = %9
  %16 = load ptr, ptr %3, align 8, !tbaa !43
  %17 = getelementptr inbounds nuw %struct.tmpi_comm_, ptr %16, i32 0, i32 1
  %18 = call noundef i32 @_Z17tMPI_Barrier_waitP14tMPI_Barrier_t(ptr noundef %17)
  br label %19

19:                                               ; preds = %15, %9
  store i32 0, ptr %2, align 4
  br label %20

20:                                               ; preds = %19, %6
  %21 = load i32, ptr %2, align 4
  ret i32 %21
}