; Function Attrs: mustprogress uwtable
define noundef i32 @_Z12tMPI_BarrierP10tmpi_comm_(ptr noundef %0) local_unnamed_addr #0 {
  %.not = icmp eq ptr %0, null
  br i1 %.not, label %2, label %5

2:                                                ; preds = %1
  %3 = load ptr, ptr @TMPI_COMM_WORLD, align 8, !tbaa !61
  %4 = tail call noundef i32 @_Z10tMPI_ErrorP10tmpi_comm_i(ptr noundef %3, i32 noundef 6)
  br label %11

5:                                                ; preds = %1
  %6 = load i32, ptr %0, align 8, !tbaa !66
  %7 = icmp sgt i32 %6, 1
  br i1 %7, label %8, label %11

8:                                                ; preds = %5
  %9 = getelementptr inbounds nuw i8, ptr %0, i64 16
  %10 = tail call noundef i32 @_Z17tMPI_Barrier_waitP14tMPI_Barrier_t(ptr noundef nonnull %9)
  br label %11

11:                                               ; preds = %5, %8, %2
  %.0 = phi i32 [ %4, %2 ], [ 0, %8 ], [ 0, %5 ]
  ret i32 %.0
}